target datalayout = "e-m:e-p270:32:32-p271:32:32-p272:64:64-i64:64-i128:128-f80:128-n8:16:32:64-S128"
target triple = "x86_64-unknown-linux-gnu"

%"class.icu_75::UnicodeSet" = type <{ %"class.icu_75::UnicodeFilter", ptr, i32, i32, i8, [7 x i8], ptr, ptr, i32, [4 x i8], ptr, i32, [4 x i8], ptr, ptr, [25 x i32], [4 x i8] }>
%"class.icu_75::UnicodeFilter" = type { %"class.icu_75::UnicodeFunctor", %"class.icu_75::UnicodeMatcher" }
%"class.icu_75::UnicodeFunctor" = type { %"class.icu_75::UObject" }
%"class.icu_75::UObject" = type { ptr }
%"class.icu_75::UnicodeMatcher" = type { ptr }

; Function Attrs: mustprogress nounwind uwtable
define noundef i32 @_ZNK6icu_7510UnicodeSet13findCodePointEi(ptr noundef nonnull align 8 dereferenceable(200) %this, i32 noundef %c) #0 align 2 {
entry:
  %retval = alloca i32, align 4
  %this.addr = alloca ptr, align 8
  %c.addr = alloca i32, align 4
  %lo = alloca i32, align 4
  %hi = alloca i32, align 4
  %i = alloca i32, align 4
  store ptr %this, ptr %this.addr, align 8
  store i32 %c, ptr %c.addr, align 4
  %this1 = load ptr, ptr %this.addr, align 8
  %0 = load i32, ptr %c.addr, align 4
  %list = getelementptr inbounds %"class.icu_75::UnicodeSet", ptr %this1, i32 0, i32 1
  %1 = load ptr, ptr %list, align 8
  %arrayidx = getelementptr inbounds i32, ptr %1, i64 0
  %2 = load i32, ptr %arrayidx, align 4
  %cmp = icmp slt i32 %0, %2
  br i1 %cmp, label %if.then, label %if.end

if.then:                                          ; preds = %entry
  store i32 0, ptr %retval, align 4
  br label %return

if.end:                                           ; preds = %entry
  store i32 0, ptr %lo, align 4
  %len = getelementptr inbounds %"class.icu_75::UnicodeSet", ptr %this1, i32 0, i32 3
  %3 = load i32, ptr %len, align 4
  %sub = sub nsw i32 %3, 1
  store i32 %sub, ptr %hi, align 4
  %4 = load i32, ptr %lo, align 4
  %5 = load i32, ptr %hi, align 4
  %cmp2 = icmp sge i32 %4, %5
  br i1 %cmp2, label %if.then7, label %lor.lhs.false

lor.lhs.false:                                    ; preds = %if.end
  %6 = load i32, ptr %c.addr, align 4
  %list3 = getelementptr inbounds %"class.icu_75::UnicodeSet", ptr %this1, i32 0, i32 1
  %7 = load ptr, ptr %list3, align 8
  %8 = load i32, ptr %hi, align 4
  %sub4 = sub nsw i32 %8, 1
  %idxprom = sext i32 %sub4 to i64
  %arrayidx5 = getelementptr inbounds i32, ptr %7, i64 %idxprom
  %9 = load i32, ptr %arrayidx5, align 4
  %cmp6 = icmp sge i32 %6, %9
  br i1 %cmp6, label %if.then7, label %if.end8

if.then7:                                         ; preds = %lor.lhs.false, %if.end
  %10 = load i32, ptr %hi, align 4
  store i32 %10, ptr %retval, align 4
  br label %return

if.end8:                                          ; preds = %lor.lhs.false
  br label %for.cond

for.cond:                                         ; preds = %if.end18, %if.end8
  %11 = load i32, ptr %lo, align 4
  %12 = load i32, ptr %hi, align 4
  %add = add nsw i32 %11, %12
  %shr = ashr i32 %add, 1
  store i32 %shr, ptr %i, align 4
  %13 = load i32, ptr %i, align 4
  %14 = load i32, ptr %lo, align 4
  %cmp9 = icmp eq i32 %13, %14
  br i1 %cmp9, label %if.then10, label %if.else

if.then10:                                        ; preds = %for.cond
  br label %for.end

if.else:                                          ; preds = %for.cond
  %15 = load i32, ptr %c.addr, align 4
  %list11 = getelementptr inbounds %"class.icu_75::UnicodeSet", ptr %this1, i32 0, i32 1
  %16 = load ptr, ptr %list11, align 8
  %17 = load i32, ptr %i, align 4
  %idxprom12 = sext i32 %17 to i64
  %arrayidx13 = getelementptr inbounds i32, ptr %16, i64 %idxprom12
  %18 = load i32, ptr %arrayidx13, align 4
  %cmp14 = icmp slt i32 %15, %18
  br i1 %cmp14, label %if.then15, label %if.else16

if.then15:                                        ; preds = %if.else
  %19 = load i32, ptr %i, align 4
  store i32 %19, ptr %hi, align 4
  br label %if.end17

if.else16:                                        ; preds = %if.else
  %20 = load i32, ptr %i, align 4
  store i32 %20, ptr %lo, align 4
  br label %if.end17

if.end17:                                         ; preds = %if.else16, %if.then15
  br label %if.end18

if.end18:                                         ; preds = %if.end17
  br label %for.cond, !llvm.loop !8

for.end:                                          ; preds = %if.then10
  %21 = load i32, ptr %hi, align 4
  store i32 %21, ptr %retval, align 4
  br label %return

return:                                           ; preds = %for.end, %if.then7, %if.then
  %22 = load i32, ptr %retval, align 4
  ret i32 %22
}