; Function Attrs: mustprogress nofree norecurse nosync nounwind willreturn memory(read, inaccessiblemem: none) uwtable
define noundef i32 @_ZNK6icu_7510UnicodeSet13findCodePointEi(ptr nocapture noundef nonnull readonly align 8 dereferenceable(200) %this, i32 noundef %c) local_unnamed_addr #9 align 2 {
entry:
  %list = getelementptr inbounds i8, ptr %this, i64 16
  %0 = load ptr, ptr %list, align 8
  %1 = load i32, ptr %0, align 4
  %cmp = icmp sgt i32 %1, %c
  br i1 %cmp, label %return, label %if.end

if.end:                                           ; preds = %entry
  %len = getelementptr inbounds i8, ptr %this, i64 28
  %2 = load i32, ptr %len, align 4
  %sub = add nsw i32 %2, -1
  %cmp2 = icmp slt i32 %2, 2
  br i1 %cmp2, label %return, label %lor.lhs.false

lor.lhs.false:                                    ; preds = %if.end
  %3 = zext nneg i32 %2 to i64
  %4 = getelementptr i32, ptr %0, i64 %3
  %arrayidx5 = getelementptr i8, ptr %4, i64 -8
  %5 = load i32, ptr %arrayidx5, align 4
  %cmp6.not = icmp sle i32 %5, %c
  %cmp913 = icmp eq i32 %2, 2
  %or.cond = or i1 %cmp6.not, %cmp913
  br i1 %or.cond, label %return, label %if.else.preheader

if.else.preheader:                                ; preds = %lor.lhs.false
  %shr12 = lshr i32 %sub, 1
  br label %if.else

if.else:                                          ; preds = %if.else.preheader, %if.else
  %shr16 = phi i32 [ %shr, %if.else ], [ %shr12, %if.else.preheader ]
  %hi.015 = phi i32 [ %shr.hi.0, %if.else ], [ %sub, %if.else.preheader ]
  %lo.014 = phi i32 [ %lo.0.shr, %if.else ], [ 0, %if.else.preheader ]
  %idxprom12 = zext nneg i32 %shr16 to i64
  %arrayidx13 = getelementptr inbounds i32, ptr %0, i64 %idxprom12
  %6 = load i32, ptr %arrayidx13, align 4
  %cmp14 = icmp sgt i32 %6, %c
  %lo.0.shr = select i1 %cmp14, i32 %lo.014, i32 %shr16
  %shr.hi.0 = select i1 %cmp14, i32 %shr16, i32 %hi.015
  %add = add nuw nsw i32 %shr.hi.0, %lo.0.shr
  %shr = lshr i32 %add, 1
  %cmp9 = icmp eq i32 %shr, %lo.0.shr
  br i1 %cmp9, label %return, label %if.else, !llvm.loop !9

return:                                           ; preds = %if.else, %if.end, %lor.lhs.false, %entry
  %retval.0 = phi i32 [ 0, %entry ], [ %sub, %lor.lhs.false ], [ %sub, %if.end ], [ %shr.hi.0, %if.else ]
  ret i32 %retval.0
}